; Function Attrs: mustprogress uwtable
define hidden noundef zeroext i1 @_ZNK7datalog16product_relation13contains_factERKNS_13relation_factE(ptr noundef nonnull readonly align 8 captures(none) dereferenceable(48) %0, ptr noundef nonnull align 8 dereferenceable(16) %1) unnamed_addr #3 align 2 {
  %3 = getelementptr inbounds nuw i8, ptr %0, i64 32
  br label %4

4:                                                ; preds = %11, %2
  %indvars.iv = phi i64 [ %indvars.iv.next, %11 ], [ 0, %2 ]
  %5 = load ptr, ptr %3, align 8, !tbaa !89
  %6 = icmp eq ptr %5, null
  br i1 %6, label %_ZNK7datalog16product_relation4sizeEv.exit, label %7

7:                                                ; preds = %4
  %8 = getelementptr inbounds i8, ptr %5, i64 -4
  %9 = load i32, ptr %8, align 4, !tbaa !39
  %10 = zext i32 %9 to i64
  br label %_ZNK7datalog16product_relation4sizeEv.exit

_ZNK7datalog16product_relation4sizeEv.exit:       ; preds = %4, %7
  %.0.i.i = phi i64 [ %10, %7 ], [ 0, %4 ]
  %.not.not.not.not.not = icmp samesign uge i64 %indvars.iv, %.0.i.i
  br i1 %.not.not.not.not.not, label %18, label %11

11:                                               ; preds = %_ZNK7datalog16product_relation4sizeEv.exit
  %12 = getelementptr inbounds nuw ptr, ptr %5, i64 %indvars.iv
  %13 = load ptr, ptr %12, align 8, !tbaa !92
  %14 = load ptr, ptr %13, align 8, !tbaa !17
  %15 = getelementptr inbounds nuw i8, ptr %14, i64 56
  %16 = load ptr, ptr %15, align 8
  %17 = tail call noundef zeroext i1 %16(ptr noundef nonnull align 8 dereferenceable(28) %13, ptr noundef nonnull align 8 dereferenceable(16) %1)
  %indvars.iv.next = add nuw nsw i64 %indvars.iv, 1
  br i1 %17, label %4, label %18, !llvm.loop !177

18:                                               ; preds = %11, %_ZNK7datalog16product_relation4sizeEv.exit
  ret i1 %.not.not.not.not.not
}